; Function Attrs: mustprogress nofree norecurse nosync nounwind willreturn memory(argmem: write) uwtable
define internal void @ft_constructor(ptr noundef writeonly captures(none) initializes((144, 161), (424, 457), (464, 481)) %0) #1 {
  %2 = getelementptr inbounds nuw i8, ptr %0, i64 144
  %3 = getelementptr inbounds nuw i8, ptr %0, i64 424
  %4 = getelementptr inbounds nuw i8, ptr %0, i64 456
  tail call void @llvm.memset.p0.i64(ptr noundef nonnull align 8 dereferenceable(17) %2, i8 0, i64 17, i1 false)
  tail call void @llvm.memset.p0.i64(ptr noundef nonnull align 8 dereferenceable(32) %3, i8 0, i64 32, i1 false)
  store i8 3, ptr %4, align 8, !tbaa !69
  %5 = getelementptr inbounds nuw i8, ptr %0, i64 464
  tail call void @llvm.memset.p0.i64(ptr noundef nonnull align 8 dereferenceable(17) %5, i8 0, i64 17, i1 false)
  ret void
}